target datalayout = "e-m:e-p270:32:32-p271:32:32-p272:64:64-i64:64-i128:128-f80:128-n8:16:32:64-S128"
target triple = "x86_64-pc-linux-gnu"

@H5AC_init_g = global i8 0, align 1
@H5_libterm_g = external global i8, align 1
@.str = private unnamed_addr constant [98 x i8] c"generated/home/dtcxzyw/WorkSpace/Projects/compilers/llvm-opt-benchmark/bench/hdf5/hdf5/src/H5AC.c\00", align 1
@H5E_FUNC_g = external global i64, align 8
@H5E_CANTINIT_g = external global i64, align 8
@.str.1 = private unnamed_addr constant [32 x i8] c"interface initialization failed\00", align 1
@H5E_CACHE_g = external global i64, align 8
@__func__.H5AC_get_entry_status = private unnamed_addr constant [22 x i8] c"H5AC_get_entry_status\00", align 1
@H5E_SYSTEM_g = external global i64, align 8
@.str.14 = private unnamed_addr constant [22 x i8] c"Bad param(s) on entry\00", align 1
@.str.15 = private unnamed_addr constant [30 x i8] c"H5C_get_entry_status() failed\00", align 1

; Function Attrs: nounwind uwtable
define i32 @H5AC__init_package() #0 {
  %1 = load i8, ptr @H5AC_init_g, align 1, !tbaa !7, !range !9, !noundef !10
  %2 = trunc i8 %1 to i1
  br i1 %2, label %7, label %3

3:                                                ; preds = %0
  %4 = load i8, ptr @H5_libterm_g, align 1, !tbaa !7, !range !9, !noundef !10
  %5 = trunc i8 %4 to i1
  %6 = xor i1 %5, true
  br label %7

7:                                                ; preds = %3, %0
  %8 = phi i1 [ true, %0 ], [ %6, %3 ]
  %9 = xor i1 %8, true
  %10 = xor i1 %9, true
  %11 = zext i1 %10 to i32
  %12 = sext i32 %11 to i64
  %13 = call i64 @llvm.expect.i64(i64 %12, i64 1)
  %14 = icmp ne i64 %13, 0
  br i1 %14, label %15, label %16

15:                                               ; preds = %7
  br label %16

16:                                               ; preds = %15, %7
  ret i32 0
}

; Function Attrs: nounwind uwtable
define i32 @H5AC_get_entry_status(ptr noundef %0, i64 noundef %1, ptr noundef %2) #0 {
  %4 = alloca ptr, align 8
  %5 = alloca i64, align 8
  %6 = alloca ptr, align 8
  %7 = alloca i8, align 1
  %8 = alloca i8, align 1
  %9 = alloca i8, align 1
  %10 = alloca i8, align 1
  %11 = alloca i8, align 1
  %12 = alloca i8, align 1
  %13 = alloca i8, align 1
  %14 = alloca i8, align 1
  %15 = alloca i32, align 4
  %16 = alloca i8, align 1
  store ptr %0, ptr %4, align 8, !tbaa !13
  store i64 %1, ptr %5, align 8, !tbaa !11
  store ptr %2, ptr %6, align 8, !tbaa !82
  call void @llvm.lifetime.start.p0(i64 1, ptr %7) #6
  call void @llvm.lifetime.start.p0(i64 1, ptr %8) #6
  call void @llvm.lifetime.start.p0(i64 1, ptr %9) #6
  call void @llvm.lifetime.start.p0(i64 1, ptr %10) #6
  call void @llvm.lifetime.start.p0(i64 1, ptr %11) #6
  call void @llvm.lifetime.start.p0(i64 1, ptr %12) #6
  call void @llvm.lifetime.start.p0(i64 1, ptr %13) #6
  call void @llvm.lifetime.start.p0(i64 1, ptr %14) #6
  call void @llvm.lifetime.start.p0(i64 4, ptr %15) #6
  store i32 0, ptr %15, align 4, !tbaa !3
  call void @llvm.lifetime.start.p0(i64 1, ptr %16) #6
  store i8 0, ptr %16, align 1, !tbaa !7
  %17 = load i8, ptr @H5AC_init_g, align 1, !tbaa !7, !range !9, !noundef !10
  %18 = trunc i8 %17 to i1
  br i1 %18, label %23, label %19

19:                                               ; preds = %3
  %20 = load i8, ptr @H5_libterm_g, align 1, !tbaa !7, !range !9, !noundef !10
  %21 = trunc i8 %20 to i1
  %22 = xor i1 %21, true
  br label %23

23:                                               ; preds = %19, %3
  %24 = phi i1 [ false, %3 ], [ %22, %19 ]
  %25 = xor i1 %24, true
  %26 = xor i1 %25, true
  %27 = zext i1 %26 to i32
  %28 = sext i32 %27 to i64
  %29 = call i64 @llvm.expect.i64(i64 %28, i64 0)
  %30 = icmp ne i64 %29, 0
  br i1 %30, label %31, label %54

31:                                               ; preds = %23
  store i8 1, ptr @H5AC_init_g, align 1, !tbaa !7
  %32 = call i32 @H5AC__init_package()
  %33 = icmp slt i32 %32, 0
  br i1 %33, label %34, label %53

34:                                               ; preds = %31
  store i8 0, ptr @H5AC_init_g, align 1, !tbaa !7
  br label %35

35:                                               ; preds = %34
  br label %36

36:                                               ; preds = %35
  br label %37

37:                                               ; preds = %36
  %38 = load i64, ptr @H5E_FUNC_g, align 8, !tbaa !11
  %39 = load i64, ptr @H5E_CANTINIT_g, align 8, !tbaa !11
  %40 = call i32 (ptr, ptr, i32, i64, i64, ptr, ...) @H5E_printf_stack(ptr noundef @.str, ptr noundef @__func__.H5AC_get_entry_status, i32 noundef 688, i64 noundef %38, i64 noundef %39, ptr noundef @.str.1)
  br label %41

41:                                               ; preds = %37
  br label %42

42:                                               ; preds = %41
  store i8 1, ptr %16, align 1, !tbaa !7
  %43 = load i8, ptr %16, align 1, !tbaa !7, !range !9, !noundef !10
  %44 = trunc i8 %43 to i1
  %45 = zext i1 %44 to i8
  store i8 %45, ptr %16, align 1, !tbaa !7
  br label %46

46:                                               ; preds = %42
  br label %47

47:                                               ; preds = %46
  br label %48

48:                                               ; preds = %47
  store i32 -1, ptr %15, align 4, !tbaa !3
  br label %180

49:                                               ; No predecessors!
  br label %50

50:                                               ; preds = %49
  br label %51

51:                                               ; preds = %50
  br label %52

52:                                               ; preds = %51
  br label %53

53:                                               ; preds = %52, %31
  br label %54

54:                                               ; preds = %53, %23
  %55 = load i8, ptr @H5AC_init_g, align 1, !tbaa !7, !range !9, !noundef !10
  %56 = trunc i8 %55 to i1
  br i1 %56, label %61, label %57

57:                                               ; preds = %54
  %58 = load i8, ptr @H5_libterm_g, align 1, !tbaa !7, !range !9, !noundef !10
  %59 = trunc i8 %58 to i1
  %60 = xor i1 %59, true
  br label %61

61:                                               ; preds = %57, %54
  %62 = phi i1 [ true, %54 ], [ %60, %57 ]
  %63 = xor i1 %62, true
  %64 = xor i1 %63, true
  %65 = zext i1 %64 to i32
  %66 = sext i32 %65 to i64
  %67 = call i64 @llvm.expect.i64(i64 %66, i64 1)
  %68 = icmp ne i64 %67, 0
  br i1 %68, label %69, label %181

69:                                               ; preds = %61
  %70 = load ptr, ptr %4, align 8, !tbaa !13
  %71 = icmp eq ptr %70, null
  br i1 %71, label %78, label %72

72:                                               ; preds = %69
  %73 = load i64, ptr %5, align 8, !tbaa !11
  %74 = icmp ne i64 %73, -1
  br i1 %74, label %75, label %78

75:                                               ; preds = %72
  %76 = load ptr, ptr %6, align 8, !tbaa !82
  %77 = icmp eq ptr %76, null
  br i1 %77, label %78, label %97

78:                                               ; preds = %75, %72, %69
  br label %79

79:                                               ; preds = %78
  br label %80

80:                                               ; preds = %79
  br label %81

81:                                               ; preds = %80
  %82 = load i64, ptr @H5E_CACHE_g, align 8, !tbaa !11
  %83 = load i64, ptr @H5E_SYSTEM_g, align 8, !tbaa !11
  %84 = call i32 (ptr, ptr, i32, i64, i64, ptr, ...) @H5E_printf_stack(ptr noundef @.str, ptr noundef @__func__.H5AC_get_entry_status, i32 noundef 691, i64 noundef %82, i64 noundef %83, ptr noundef @.str.14)
  br label %85

85:                                               ; preds = %81
  br label %86

86:                                               ; preds = %85
  store i8 1, ptr %16, align 1, !tbaa !7
  %87 = load i8, ptr %16, align 1, !tbaa !7, !range !9, !noundef !10
  %88 = trunc i8 %87 to i1
  %89 = zext i1 %88 to i8
  store i8 %89, ptr %16, align 1, !tbaa !7
  br label %90

90:                                               ; preds = %86
  br label %91

91:                                               ; preds = %90
  br label %92

92:                                               ; preds = %91
  store i32 -1, ptr %15, align 4, !tbaa !3
  br label %180

93:                                               ; No predecessors!
  br label %94

94:                                               ; preds = %93
  br label %95

95:                                               ; preds = %94
  br label %96

96:                                               ; preds = %95
  br label %97

97:                                               ; preds = %96, %75
  %98 = load ptr, ptr %4, align 8, !tbaa !13
  %99 = load i64, ptr %5, align 8, !tbaa !11
  %100 = call i32 @H5C_get_entry_status(ptr noundef %98, i64 noundef %99, ptr noundef null, ptr noundef %7, ptr noundef %8, ptr noundef %9, ptr noundef %10, ptr noundef %11, ptr noundef %13, ptr noundef %12, ptr noundef %14)
  %101 = icmp slt i32 %100, 0
  br i1 %101, label %102, label %121

102:                                              ; preds = %97
  br label %103

103:                                              ; preds = %102
  br label %104

104:                                              ; preds = %103
  br label %105

105:                                              ; preds = %104
  %106 = load i64, ptr @H5E_CACHE_g, align 8, !tbaa !11
  %107 = load i64, ptr @H5E_SYSTEM_g, align 8, !tbaa !11
  %108 = call i32 (ptr, ptr, i32, i64, i64, ptr, ...) @H5E_printf_stack(ptr noundef @.str, ptr noundef @__func__.H5AC_get_entry_status, i32 noundef 695, i64 noundef %106, i64 noundef %107, ptr noundef @.str.15)
  br label %109

109:                                              ; preds = %105
  br label %110

110:                                              ; preds = %109
  store i8 1, ptr %16, align 1, !tbaa !7
  %111 = load i8, ptr %16, align 1, !tbaa !7, !range !9, !noundef !10
  %112 = trunc i8 %111 to i1
  %113 = zext i1 %112 to i8
  store i8 %113, ptr %16, align 1, !tbaa !7
  br label %114

114:                                              ; preds = %110
  br label %115

115:                                              ; preds = %114
  br label %116

116:                                              ; preds = %115
  store i32 -1, ptr %15, align 4, !tbaa !3
  br label %180

117:                                              ; No predecessors!
  br label %118

118:                                              ; preds = %117
  br label %119

119:                                              ; preds = %118
  br label %120

120:                                              ; preds = %119
  br label %121

121:                                              ; preds = %120, %97
  %122 = load i8, ptr %7, align 1, !tbaa !7, !range !9, !noundef !10
  %123 = trunc i8 %122 to i1
  br i1 %123, label %124, label %177

124:                                              ; preds = %121
  %125 = load ptr, ptr %6, align 8, !tbaa !82
  %126 = load i32, ptr %125, align 4, !tbaa !3
  %127 = or i32 %126, 1
  store i32 %127, ptr %125, align 4, !tbaa !3
  %128 = load i8, ptr %8, align 1, !tbaa !7, !range !9, !noundef !10
  %129 = trunc i8 %128 to i1
  br i1 %129, label %130, label %134

130:                                              ; preds = %124
  %131 = load ptr, ptr %6, align 8, !tbaa !82
  %132 = load i32, ptr %131, align 4, !tbaa !3
  %133 = or i32 %132, 2
  store i32 %133, ptr %131, align 4, !tbaa !3
  br label %134

134:                                              ; preds = %130, %124
  %135 = load i8, ptr %9, align 1, !tbaa !7, !range !9, !noundef !10
  %136 = trunc i8 %135 to i1
  br i1 %136, label %137, label %141

137:                                              ; preds = %134
  %138 = load ptr, ptr %6, align 8, !tbaa !82
  %139 = load i32, ptr %138, align 4, !tbaa !3
  %140 = or i32 %139, 4
  store i32 %140, ptr %138, align 4, !tbaa !3
  br label %141

141:                                              ; preds = %137, %134
  %142 = load i8, ptr %10, align 1, !tbaa !7, !range !9, !noundef !10
  %143 = trunc i8 %142 to i1
  br i1 %143, label %144, label %148

144:                                              ; preds = %141
  %145 = load ptr, ptr %6, align 8, !tbaa !82
  %146 = load i32, ptr %145, align 4, !tbaa !3
  %147 = or i32 %146, 8
  store i32 %147, ptr %145, align 4, !tbaa !3
  br label %148

148:                                              ; preds = %144, %141
  %149 = load i8, ptr %11, align 1, !tbaa !7, !range !9, !noundef !10
  %150 = trunc i8 %149 to i1
  br i1 %150, label %151, label %155

151:                                              ; preds = %148
  %152 = load ptr, ptr %6, align 8, !tbaa !82
  %153 = load i32, ptr %152, align 4, !tbaa !3
  %154 = or i32 %153, 64
  store i32 %154, ptr %152, align 4, !tbaa !3
  br label %155

155:                                              ; preds = %151, %148
  %156 = load i8, ptr %13, align 1, !tbaa !7, !range !9, !noundef !10
  %157 = trunc i8 %156 to i1
  br i1 %157, label %158, label %162

158:                                              ; preds = %155
  %159 = load ptr, ptr %6, align 8, !tbaa !82
  %160 = load i32, ptr %159, align 4, !tbaa !3
  %161 = or i32 %160, 16
  store i32 %161, ptr %159, align 4, !tbaa !3
  br label %162

162:                                              ; preds = %158, %155
  %163 = load i8, ptr %12, align 1, !tbaa !7, !range !9, !noundef !10
  %164 = trunc i8 %163 to i1
  br i1 %164, label %165, label %169

165:                                              ; preds = %162
  %166 = load ptr, ptr %6, align 8, !tbaa !82
  %167 = load i32, ptr %166, align 4, !tbaa !3
  %168 = or i32 %167, 32
  store i32 %168, ptr %166, align 4, !tbaa !3
  br label %169

169:                                              ; preds = %165, %162
  %170 = load i8, ptr %14, align 1, !tbaa !7, !range !9, !noundef !10
  %171 = trunc i8 %170 to i1
  br i1 %171, label %172, label %176

172:                                              ; preds = %169
  %173 = load ptr, ptr %6, align 8, !tbaa !82
  %174 = load i32, ptr %173, align 4, !tbaa !3
  %175 = or i32 %174, 128
  store i32 %175, ptr %173, align 4, !tbaa !3
  br label %176

176:                                              ; preds = %172, %169
  br label %179

177:                                              ; preds = %121
  %178 = load ptr, ptr %6, align 8, !tbaa !82
  store i32 0, ptr %178, align 4, !tbaa !3
  br label %179

179:                                              ; preds = %177, %176
  br label %180

180:                                              ; preds = %179, %116, %92, %48
  br label %181

181:                                              ; preds = %180, %61
  %182 = load i32, ptr %15, align 4, !tbaa !3
  call void @llvm.lifetime.end.p0(i64 1, ptr %16) #6
  call void @llvm.lifetime.end.p0(i64 4, ptr %15) #6
  call void @llvm.lifetime.end.p0(i64 1, ptr %14) #6
  call void @llvm.lifetime.end.p0(i64 1, ptr %13) #6
  call void @llvm.lifetime.end.p0(i64 1, ptr %12) #6
  call void @llvm.lifetime.end.p0(i64 1, ptr %11) #6
  call void @llvm.lifetime.end.p0(i64 1, ptr %10) #6
  call void @llvm.lifetime.end.p0(i64 1, ptr %9) #6
  call void @llvm.lifetime.end.p0(i64 1, ptr %8) #6
  call void @llvm.lifetime.end.p0(i64 1, ptr %7) #6
  ret i32 %182
}