; Function Attrs: nounwind uwtable
define range(i32 -1, 1) i32 @H5AC_get_entry_status(ptr noundef %0, i64 noundef %1, ptr noundef captures(address_is_null) %2) local_unnamed_addr #4 {
  %4 = alloca i8, align 1
  %5 = alloca i8, align 1
  %6 = alloca i8, align 1
  %7 = alloca i8, align 1
  %8 = alloca i8, align 1
  %9 = alloca i8, align 1
  %10 = alloca i8, align 1
  %11 = alloca i8, align 1
  call void @llvm.lifetime.start.p0(i64 1, ptr nonnull %4) #8
  call void @llvm.lifetime.start.p0(i64 1, ptr nonnull %5) #8
  call void @llvm.lifetime.start.p0(i64 1, ptr nonnull %6) #8
  call void @llvm.lifetime.start.p0(i64 1, ptr nonnull %7) #8
  call void @llvm.lifetime.start.p0(i64 1, ptr nonnull %8) #8
  call void @llvm.lifetime.start.p0(i64 1, ptr nonnull %9) #8
  call void @llvm.lifetime.start.p0(i64 1, ptr nonnull %10) #8
  call void @llvm.lifetime.start.p0(i64 1, ptr nonnull %11) #8
  %12 = load i8, ptr @H5AC_init_g, align 1, !tbaa !3, !range !7, !noundef !8
  %13 = trunc nuw i8 %12 to i1
  %14 = load i8, ptr @H5_libterm_g, align 1, !range !7
  %15 = trunc nuw i8 %14 to i1
  %16 = select i1 %13, i1 true, i1 %15
  br i1 %16, label %17, label %.thread, !prof !9

.thread:                                          ; preds = %3
  store i8 1, ptr @H5AC_init_g, align 1, !tbaa !3
  br label %20

17:                                               ; preds = %3
  %18 = xor i1 %15, true
  %19 = select i1 %13, i1 true, i1 %18
  br i1 %19, label %20, label %82, !prof !41

20:                                               ; preds = %.thread, %17
  %21 = icmp eq ptr %0, null
  %22 = icmp eq i64 %1, -1
  %or.cond.not22 = or i1 %21, %22
  %23 = icmp eq ptr %2, null
  %or.cond3 = or i1 %or.cond.not22, %23
  br i1 %or.cond3, label %24, label %28

24:                                               ; preds = %20
  %25 = load i64, ptr @H5E_CACHE_g, align 8, !tbaa !42
  %26 = load i64, ptr @H5E_SYSTEM_g, align 8, !tbaa !42
  %27 = tail call i32 (ptr, ptr, i32, i64, i64, ptr, ...) @H5E_printf_stack(ptr noundef nonnull @.str, ptr noundef nonnull @__func__.H5AC_get_entry_status, i32 noundef 691, i64 noundef %25, i64 noundef %26, ptr noundef nonnull @.str.14) #8
  br label %82

28:                                               ; preds = %20
  %29 = call i32 @H5C_get_entry_status(ptr noundef nonnull %0, i64 noundef %1, ptr noundef null, ptr noundef nonnull %4, ptr noundef nonnull %5, ptr noundef nonnull %6, ptr noundef nonnull %7, ptr noundef nonnull %8, ptr noundef nonnull %10, ptr noundef nonnull %9, ptr noundef nonnull %11) #8
  %30 = icmp slt i32 %29, 0
  br i1 %30, label %31, label %35

31:                                               ; preds = %28
  %32 = load i64, ptr @H5E_CACHE_g, align 8, !tbaa !42
  %33 = load i64, ptr @H5E_SYSTEM_g, align 8, !tbaa !42
  %34 = call i32 (ptr, ptr, i32, i64, i64, ptr, ...) @H5E_printf_stack(ptr noundef nonnull @.str, ptr noundef nonnull @__func__.H5AC_get_entry_status, i32 noundef 695, i64 noundef %32, i64 noundef %33, ptr noundef nonnull @.str.15) #8
  br label %82

35:                                               ; preds = %28
  %36 = load i8, ptr %4, align 1, !tbaa !3, !range !7, !noundef !8
  %37 = trunc nuw i8 %36 to i1
  br i1 %37, label %38, label %81

38:                                               ; preds = %35
  %39 = load i32, ptr %2, align 4, !tbaa !118
  %40 = or i32 %39, 1
  store i32 %40, ptr %2, align 4, !tbaa !118
  %41 = load i8, ptr %5, align 1, !tbaa !3, !range !7, !noundef !8
  %42 = trunc nuw i8 %41 to i1
  br i1 %42, label %43, label %45

43:                                               ; preds = %38
  %44 = or i32 %39, 3
  store i32 %44, ptr %2, align 4, !tbaa !118
  br label %45

45:                                               ; preds = %43, %38
  %46 = phi i32 [ %44, %43 ], [ %40, %38 ]
  %47 = load i8, ptr %6, align 1, !tbaa !3, !range !7, !noundef !8
  %48 = trunc nuw i8 %47 to i1
  br i1 %48, label %49, label %51

49:                                               ; preds = %45
  %50 = or i32 %46, 4
  store i32 %50, ptr %2, align 4, !tbaa !118
  br label %51

51:                                               ; preds = %49, %45
  %52 = phi i32 [ %50, %49 ], [ %46, %45 ]
  %53 = load i8, ptr %7, align 1, !tbaa !3, !range !7, !noundef !8
  %54 = trunc nuw i8 %53 to i1
  br i1 %54, label %55, label %57

55:                                               ; preds = %51
  %56 = or i32 %52, 8
  store i32 %56, ptr %2, align 4, !tbaa !118
  br label %57

57:                                               ; preds = %55, %51
  %58 = phi i32 [ %56, %55 ], [ %52, %51 ]
  %59 = load i8, ptr %8, align 1, !tbaa !3, !range !7, !noundef !8
  %60 = trunc nuw i8 %59 to i1
  br i1 %60, label %61, label %63

61:                                               ; preds = %57
  %62 = or i32 %58, 64
  store i32 %62, ptr %2, align 4, !tbaa !118
  br label %63

63:                                               ; preds = %61, %57
  %64 = phi i32 [ %62, %61 ], [ %58, %57 ]
  %65 = load i8, ptr %10, align 1, !tbaa !3, !range !7, !noundef !8
  %66 = trunc nuw i8 %65 to i1
  br i1 %66, label %67, label %69

67:                                               ; preds = %63
  %68 = or i32 %64, 16
  store i32 %68, ptr %2, align 4, !tbaa !118
  br label %69

69:                                               ; preds = %67, %63
  %70 = phi i32 [ %68, %67 ], [ %64, %63 ]
  %71 = load i8, ptr %9, align 1, !tbaa !3, !range !7, !noundef !8
  %72 = trunc nuw i8 %71 to i1
  br i1 %72, label %73, label %75

73:                                               ; preds = %69
  %74 = or i32 %70, 32
  store i32 %74, ptr %2, align 4, !tbaa !118
  br label %75

75:                                               ; preds = %73, %69
  %76 = phi i32 [ %74, %73 ], [ %70, %69 ]
  %77 = load i8, ptr %11, align 1, !tbaa !3, !range !7, !noundef !8
  %78 = trunc nuw i8 %77 to i1
  br i1 %78, label %79, label %82

79:                                               ; preds = %75
  %80 = or i32 %76, 128
  store i32 %80, ptr %2, align 4, !tbaa !118
  br label %82

81:                                               ; preds = %35
  store i32 0, ptr %2, align 4, !tbaa !118
  br label %82

82:                                               ; preds = %24, %31, %75, %79, %81, %17
  %.0 = phi i32 [ -1, %24 ], [ -1, %31 ], [ 0, %79 ], [ 0, %75 ], [ 0, %81 ], [ 0, %17 ]
  call void @llvm.lifetime.end.p0(i64 1, ptr nonnull %11) #8
  call void @llvm.lifetime.end.p0(i64 1, ptr nonnull %10) #8
  call void @llvm.lifetime.end.p0(i64 1, ptr nonnull %9) #8
  call void @llvm.lifetime.end.p0(i64 1, ptr nonnull %8) #8
  call void @llvm.lifetime.end.p0(i64 1, ptr nonnull %7) #8
  call void @llvm.lifetime.end.p0(i64 1, ptr nonnull %6) #8
  call void @llvm.lifetime.end.p0(i64 1, ptr nonnull %5) #8
  call void @llvm.lifetime.end.p0(i64 1, ptr nonnull %4) #8
  ret i32 %.0
}